(dp0
I0
(lp1
S'rxn12041_reverse : cpd00042_c0 + cpd16380_c0 --> cpd00001_c0 + cpd16381_c0 '
p2
aS'rxn12045_reverse : cpd00008_c0 + cpd00009_c0 + cpd00067_c0 + cpd16381_c0 --> cpd00002_c0 + cpd00042_c0 + cpd16380_c0 '
p3
asI1
(lp4
S'rxn00187_reverse : cpd00008_c0 + cpd00009_c0 + cpd00053_c0 + cpd00067_c0 --> cpd00002_c0 + cpd00013_c0 + cpd00023_c0 '
p5
aS'rxn00189_reverse : cpd00013_c0 + cpd00023_c0 --> cpd00001_c0 + cpd00053_c0 '
p6
asI2
(lp7
S'rxn00779_reverse : cpd00005_c0 + 2.0 cpd00067_c0 + cpd00169_c0 --> cpd00001_c0 + cpd00006_c0 + cpd00102_c0 '
p8
asI3
(lp9
S'rxn00518_reverse : cpd00079_c0 + cpd00090_c0 --> cpd00027_c0 + cpd00068_c0 '
p10
asI4
(lp11
S'rxn00513_reverse : cpd00009_c0 + cpd00067_c0 + cpd00090_c0 --> cpd00001_c0 + cpd00068_c0 '
p12
asI6
(lp13
S'rxn02458_reverse : cpd00009_c0 + cpd00067_c0 + cpd00914_c0 --> cpd00001_c0 + cpd00934_c0 '
p14
aS'rxn02456_reverse : cpd00008_c0 + cpd00934_c0 --> cpd00002_c0 + cpd00914_c0 '
p15
asI7
(lp16
S'rxn00287_reverse : cpd00010_c0 + cpd00036_c0 + cpd00067_c0 --> cpd00001_c0 + cpd00078_c0 '
p17
asI8
(lp18
S'rxn07971_reverse : cpd00009_c0 + cpd00067_c0 + cpd02775_c0 --> cpd00001_c0 + cpd02894_c0 '
p19
asI11
(lp20
S'rxn08067_reverse : cpd00008_c0 + cpd00090_c0 --> cpd00018_c0 + cpd00068_c0 '
p21
asI12
(lp22
S'rxn06874_reverse : 16.0 cpd00008_c0 + 16.0 cpd00009_c0 + 2.0 cpd00013_c0 + 6.0 cpd00067_c0 + 8.0 cpd11621_c0 + cpd11640_c0 --> 16.0 cpd00001_c0 + 16.0 cpd00002_c0 + cpd00528_c0 + 8.0 cpd11620_c0 '
p23
asI14
(lp24
S'rxn14039_reverse : cpd00050_c0 + cpd00096_c0 --> cpd00052_c0 + cpd00220_c0 '
p25
aS'rxn00391_reverse : cpd00009_c0 + cpd00067_c0 + cpd00220_c0 --> cpd00001_c0 + cpd00050_c0 '
p26
asI16
(lp27
S'rxn05759_reverse : 2.0 cpd11621_c0 + cpd11640_c0 --> 2.0 cpd00067_c0 + 2.0 cpd11620_c0 '
p28
asI17
(lp29
S'rxn09918_reverse : cpd00008_c0 + cpd00009_c0 + cpd00067_c0 + cpd15606_c0 --> cpd00002_c0 + cpd00033_c0 + cpd00069_c0 '
p30
asI18
(lp31
S'rxn01511_reverse : cpd00009_c0 + cpd00067_c0 + cpd00298_c0 --> cpd00001_c0 + cpd00297_c0 '
p32
asI19
(lp33
S'rxn01514_reverse : cpd00009_c0 + cpd00067_c0 + cpd00297_c0 --> cpd00001_c0 + cpd00357_c0 '
p34
asI20
(lp35
S'rxn05937_reverse : cpd00005_c0 + cpd11621_c0 --> cpd00006_c0 + cpd00067_c0 + cpd11620_c0 '
p36
asI25
(lp37
S'rxn00120_reverse : cpd00009_c0 + cpd00014_c0 + cpd00067_c0 --> cpd00001_c0 + cpd00062_c0 '
p38
asI26
(lp39
S'rxn00436_reverse : cpd00009_c0 + cpd00067_c0 + cpd00793_c0 --> cpd00001_c0 + cpd00056_c0 '
p40
asI27
(lp41
S'rxn00435_reverse : cpd00047_c0 + cpd00067_c0 + cpd00116_c0 --> cpd00001_c0 + 2.0 cpd00055_c0 '
p42
asI29
(lp43
S'rxn08066_reverse : cpd00008_c0 + cpd00031_c0 --> cpd00018_c0 + cpd00038_c0 '
p44
asI31
(lp45
S'rxn14159_reverse : cpd00005_c0 + 2.0 cpd11621_c0 --> cpd00006_c0 + cpd00067_c0 + 2.0 cpd11620_c0 '
p46
asI32
(lp47
S'rxn00149_reverse : cpd00004_c0 + cpd00020_c0 + 2.0 cpd00067_c0 --> cpd00001_c0 + cpd00003_c0 + cpd00428_c0 '
p48
aS'rxn10075_reverse : cpd00009_c0 + cpd00047_c0 + 7.0 cpd00067_c0 + cpd00869_c0 --> 3.0 cpd00001_c0 + cpd11295_c0 '
p49
asI33
(lp50
S'rxn09908_reverse : cpd00008_c0 + cpd00009_c0 + cpd00067_c0 + cpd11585_c0 --> cpd00002_c0 + cpd00033_c0 + cpd00035_c0 '
p51
asI34
(lp52
S'rxn09901_reverse : cpd00008_c0 + cpd00009_c0 + cpd00067_c0 + cpd15604_c0 --> cpd00002_c0 + cpd00033_c0 + cpd00107_c0 '
p53
asI35
(lp54
S'rxn09907_reverse : cpd00008_c0 + cpd00009_c0 + cpd00067_c0 + cpd11591_c0 --> cpd00002_c0 + cpd00033_c0 + cpd00060_c0 '
p55
asI37
(lp56
S'rxn08199_reverse : cpd00046_c0 + cpd15521_c0 --> cpd00001_c0 + cpd15417_c0 '
p57
asI38
(lp58
S'rxn00134_reverse : cpd00008_c0 + cpd00018_c0 --> cpd00002_c0 + cpd00182_c0 '
p59
aS'rxn00132_reverse : cpd00009_c0 + cpd00067_c0 + cpd00182_c0 --> cpd00001_c0 + cpd00018_c0 '
p60
asI39
(lp61
S'rxn09222_reverse : cpd00009_c0 + cpd00067_c0 + cpd00105_c0 --> cpd00001_c0 + cpd00101_c0 '
p62
aS'rxn00772_reverse : cpd00008_c0 + cpd00101_c0 --> cpd00002_c0 + cpd00105_c0 '
p63
asI40
(lp64
S'rxn09926_reverse : cpd00008_c0 + cpd00009_c0 + cpd00067_c0 + cpd11587_c0 --> cpd00002_c0 + cpd00035_c0 + cpd00053_c0 '
p65
asI41
(lp66
S'rxn09925_reverse : cpd00008_c0 + cpd00009_c0 + cpd00067_c0 + cpd11580_c0 --> cpd00002_c0 + cpd00033_c0 + cpd00053_c0 '
p67
asI42
(lp68
S'rxn05059_reverse : cpd00012_c0 + cpd00013_c0 + cpd00299_c0 --> 2.0 cpd00001_c0 + cpd00067_c0 + cpd00356_c0 '
p69
asI49
(lp70
S'rxn07847_reverse : cpd00001_c0 + cpd02679_c0 --> cpd00055_c0 + cpd00895_c0 '
p71
asI51
(lp72
S'rxn01537_reverse : cpd00067_c0 + cpd00939_c0 + cpd02636_c0 --> cpd00001_c0 + cpd00305_c0 '
p73
asI52
(lp74
S'rxn00216_reverse : cpd00008_c0 + cpd00079_c0 --> cpd00002_c0 + cpd00027_c0 '
p75
asI53
(lp76
S'rxn13974_reverse : cpd00010_c0 + cpd00020_c0 + 2.0 cpd11621_c0 --> cpd00011_c0 + cpd00022_c0 + 2.0 cpd00067_c0 + 2.0 cpd11620_c0 '
p77
asI54
(lp78
S'rxn00061_reverse : 2.0 cpd00009_c0 + cpd00018_c0 + 2.0 cpd00067_c0 --> 2.0 cpd00001_c0 + cpd00002_c0 '
p79
asI55
(lp80
S'rxn00062_reverse : cpd00008_c0 + cpd00009_c0 + cpd00067_c0 --> cpd00001_c0 + cpd00002_c0 '
p81
asI56
(lp82
S'rxn00841_reverse : cpd00079_c0 + cpd00177_c0 --> cpd00027_c0 + cpd00115_c0 '
p83
asI58
(lp84
S'rxn00088_reverse : cpd00003_c0 + cpd00009_c0 + cpd00067_c0 --> cpd00001_c0 + cpd00006_c0 '
p85
asI65
(lp86
S'rxn14048_reverse : cpd00010_c0 + cpd00024_c0 + 2.0 cpd11621_c0 --> cpd00011_c0 + 2.0 cpd00067_c0 + cpd00078_c0 + 2.0 cpd11620_c0 '
p87
asI66
(lp88
S'rxn10427_reverse : 2.0 cpd00177_c0 --> cpd00115_c0 + cpd00294_c0 '
p89
aS'rxn11267_reverse : cpd00103_c0 + cpd00294_c0 --> cpd00101_c0 + cpd00115_c0 '
p90
asI67
(lp91
S'rxn08201_reverse : cpd00046_c0 + cpd15523_c0 --> cpd00001_c0 + cpd15422_c0 '
p92
asI68
(lp93
S'rxn08202_reverse : cpd00046_c0 + cpd15524_c0 --> cpd00001_c0 + cpd15419_c0 '
p94
asI69
(lp95
S'rxn01103_reverse : cpd00009_c0 + 2.0 cpd00067_c0 + cpd00169_c0 --> cpd00001_c0 + cpd00203_c0 '
p96
asI70
(lp97
S'rxn08204_reverse : cpd00046_c0 + cpd15526_c0 --> cpd00001_c0 + cpd15421_c0 '
p98
asI72
(lp99
S'rxn00197_reverse : cpd00005_c0 + cpd00011_c0 + cpd00078_c0 --> cpd00006_c0 + cpd00010_c0 + cpd00024_c0 '
p100
asI74
(lp101
S'rxn00745_reverse : cpd00020_c0 + cpd00095_c0 --> cpd00061_c0 + cpd00157_c0 '
p102
aS'rxn08429_reverse : cpd00102_c0 + cpd00157_c0 --> cpd00072_c0 '
p103
asI76
(lp104
S'rxn00526_reverse : cpd00005_c0 + cpd00011_c0 + cpd00069_c0 --> cpd00006_c0 + cpd00616_c0 '
p105
aS'rxn06990_reverse : cpd00004_c0 + cpd11621_c0 --> cpd00003_c0 + cpd00067_c0 + cpd11620_c0 '
p106
asI78
(lp107
S'rxn10584_reverse : cpd00009_c0 + cpd00067_c0 + cpd00533_c0 --> cpd00001_c0 + cpd00356_c0 '
p108
asI79
(lp109
S'rxn10583_reverse : cpd00009_c0 + cpd00067_c0 + cpd00177_c0 --> cpd00001_c0 + cpd00115_c0 '
p110
asI80
(lp111
S'rxn01492_reverse : cpd00008_c0 + cpd00290_c0 --> cpd00002_c0 + cpd00802_c0 '
p112
asI81
(lp113
S'rxn01677_reverse : cpd00009_c0 + cpd00067_c0 + cpd00978_c0 --> cpd00001_c0 + cpd00358_c0 '
p114
asI82
(lp115
S'rxn00617_reverse : cpd00079_c0 + cpd00100_c0 --> cpd00027_c0 + cpd00080_c0 '
p116
aS'rxn00615_reverse : cpd00008_c0 + cpd00080_c0 --> cpd00002_c0 + cpd00100_c0 '
p117
asI84
(lp118
S'rxn10561_reverse : cpd00011_c0 + cpd00067_c0 + cpd11175_c0 + 2.0 cpd15877_c0 --> cpd00010_c0 + cpd00278_c0 + 2.0 cpd15876_c0 '
p119
aS'rxn13768_reverse : cpd15876_c0 --> cpd15877_c0 '
p120
asI85
(lp121
S'rxn00708_reverse : cpd00009_c0 + cpd00067_c0 + cpd00249_c0 --> cpd00001_c0 + cpd00091_c0 '
p122
aS'rxn00713_reverse : cpd00031_c0 + cpd00091_c0 --> cpd00038_c0 + cpd00249_c0 '
p123
asI86
(lp124
S'rxn06231_reverse : cpd00079_c0 + cpd11712_c0 --> cpd00027_c0 + cpd00067_c0 + cpd12508_c0 '
p125
aS'rxn06200_reverse : cpd00020_c0 + cpd00067_c0 + cpd12508_c0 --> cpd00061_c0 + cpd11712_c0 '
p126
asI87
(lp127
S'rxn03020_reverse : cpd00895_c0 + cpd02438_c0 --> cpd02246_c0 + cpd02737_c0 '
p128
asI88
(lp129
S'rxn00913_reverse : cpd00009_c0 + cpd00067_c0 + cpd00311_c0 --> cpd00001_c0 + cpd00126_c0 '
p130
asI90
(lp131
S'rxn00545_reverse : cpd00008_c0 + cpd00290_c0 --> cpd00002_c0 + cpd00072_c0 '
p132
asI91
(lp133
S'rxn00119_reverse : cpd00008_c0 + cpd00014_c0 --> cpd00002_c0 + cpd00091_c0 '
p134
aS'rxn00116_reverse : cpd00009_c0 + cpd00067_c0 + cpd00091_c0 --> cpd00001_c0 + cpd00014_c0 '
p135
asI92
(lp136
S'rxn00118_reverse : cpd00008_c0 + cpd00014_c0 --> cpd00018_c0 + cpd00062_c0 '
p137
asI95
(lp138
S'rxn09913_reverse : cpd00008_c0 + cpd00009_c0 + cpd00067_c0 + cpd15605_c0 --> cpd00002_c0 + cpd00033_c0 + cpd00066_c0 '
p139
asI96
(lp140
S'rxn00097_reverse : 2.0 cpd00008_c0 --> cpd00002_c0 + cpd00018_c0 '
p141
asI97
(lp142
S'rxn00366_reverse : cpd00009_c0 + cpd00046_c0 + cpd00067_c0 --> cpd00001_c0 + cpd00096_c0 '
p143
asI98
(lp144
S'rxn00367_reverse : cpd00012_c0 + cpd00046_c0 --> cpd00001_c0 + cpd00052_c0 '
p145
asI99
(lp146
S'rxn00363_reverse : cpd00009_c0 + cpd00067_c0 + cpd00367_c0 --> cpd00001_c0 + cpd00046_c0 '
p147
asI100
(lp148
S'rxn08981_reverse : cpd00008_c0 + cpd00009_c0 + cpd00012_c0 + cpd00873_c0 --> cpd00001_c0 + cpd00002_c0 + cpd00103_c0 + cpd00218_c0 '
p149
asI101
(lp150
S'rxn09516_reverse : cpd00009_c0 + cpd00067_c0 + cpd00295_c0 --> cpd00001_c0 + cpd00241_c0 '
p151
asI102
(lp152
S'rxn00153_reverse : cpd00009_c0 + cpd00020_c0 + cpd00067_c0 --> cpd00001_c0 + cpd00061_c0 '
p153
asI103
(lp154
S'rxn00155_reverse : cpd00005_c0 + cpd00011_c0 + cpd00022_c0 --> cpd00006_c0 + cpd00010_c0 + cpd00020_c0 '
p155
asI104
(lp156
S'rxn00408_reverse : cpd00009_c0 + cpd00067_c0 + cpd00096_c0 --> cpd00001_c0 + cpd00052_c0 '
p157
asI105
(lp158
S'rxn00407_reverse : cpd00013_c0 + cpd00062_c0 --> cpd00001_c0 + cpd00052_c0 + cpd00067_c0 '
p159
asI106
(lp160
S'rxn09938_reverse : cpd00008_c0 + cpd00009_c0 + cpd00067_c0 + cpd15603_c0 --> cpd00002_c0 + cpd00033_c0 + cpd00084_c0 '
p161
asI107
(lp162
S'rxn09931_reverse : cpd00008_c0 + cpd00009_c0 + cpd00067_c0 + cpd11584_c0 --> cpd00002_c0 + cpd00035_c0 + cpd00119_c0 '
p163
asI108
(lp164
S'rxn00556_reverse : cpd00014_c0 + cpd00290_c0 --> cpd00062_c0 + cpd00072_c0 '
p165
asI110
(lp166
S'rxn01221_reverse : cpd00009_c0 + cpd00067_c0 + cpd00206_c0 --> cpd00001_c0 + cpd00533_c0 '
p167
asI111
(lp168
S'rxn01222_reverse : cpd00012_c0 + cpd00206_c0 --> cpd00001_c0 + cpd00356_c0 '
p169
asI112
(lp170
S'rxn09014_reverse : cpd00012_c0 + cpd00298_c0 --> cpd00001_c0 + cpd00357_c0 '
p171
asI113
(lp172
S'rxn00831_reverse : cpd00009_c0 + cpd00067_c0 + cpd00246_c0 --> cpd00001_c0 + cpd00114_c0 '
p173
asI115
(lp174
S'rxn08200_reverse : cpd00046_c0 + cpd15522_c0 --> cpd00001_c0 + cpd15423_c0 '
p175
asI116
(lp176
S'rxn08203_reverse : cpd00046_c0 + cpd15525_c0 --> cpd00001_c0 + cpd15418_c0 '
p177
asI117
(lp178
S'rxn08205_reverse : cpd00046_c0 + cpd15527_c0 --> cpd00001_c0 + cpd15420_c0 '
p179
asI118
(lp180
S'rxn00241_reverse : cpd00009_c0 + cpd00031_c0 + cpd00067_c0 --> cpd00001_c0 + cpd00038_c0 '
p181
asI120
(lp182
S'rxn09502_reverse : cpd00008_c0 + cpd00863_c0 --> cpd00002_c0 + cpd00027_c0 '
p183
asI122
(lp184
S'rxn06121_reverse : cpd00169_c0 --> cpd00203_c0 '
p185
aS'rxn07089_reverse : cpd00116_c0 --> cpd00001_c0 '
p186
asI123
(lp187
S'rxn09177_reverse : cpd00012_c0 + cpd00046_c0 + cpd02666_c0 --> cpd00052_c0 + cpd00084_c0 + cpd02201_c0 '
p188
asI124
(lp189
S'rxn00554_reverse : cpd00096_c0 + cpd00290_c0 --> cpd00052_c0 + cpd00072_c0 '
p190
asI125
(lp191
S'rxn00557_reverse : cpd00090_c0 + cpd00290_c0 --> cpd00068_c0 + cpd00072_c0 '
p192
asI128
(lp193
S'rxn14057 : 3.0 cpd00001_c0 + cpd00239_c0 + 6.0 cpd11621_c0 --> 6.0 cpd00067_c0 + cpd00081_c0 + 6.0 cpd11620_c0 '
p194
aS'rxn05902_reverse : 7.0 cpd00067_c0 + cpd00081_c0 + 3.0 cpd11620_c0 --> 3.0 cpd00001_c0 + cpd00239_c0 + 3.0 cpd11621_c0 '
p195
asI130
(lp196
S'rxn00114 : cpd00002_c0 + cpd00011_c0 + cpd00013_c0 --> cpd00008_c0 + cpd00067_c0 + cpd00146_c0 '
p197
aS'rxn12881_reverse : 2.0 cpd00008_c0 + cpd00009_c0 + cpd00023_c0 + 2.0 cpd00067_c0 + cpd00146_c0 --> 2.0 cpd00001_c0 + 2.0 cpd00002_c0 + cpd00011_c0 + cpd00053_c0 '
p198
asI131
(lp199
S'rxn00116 : cpd00001_c0 + cpd00014_c0 --> cpd00009_c0 + cpd00067_c0 + cpd00091_c0 '
p200
aS'rxn13414_reverse : 2.0 cpd00009_c0 + 2.0 cpd00067_c0 + cpd00091_c0 --> 2.0 cpd00001_c0 + cpd00062_c0 '
p201
asI132
(lp202
S'rxn05906 : cpd00001_c0 --> cpd00082_c0 '
p203
aS'rxn08430_reverse : cpd00009_c0 + cpd00067_c0 + cpd00082_c0 --> cpd00001_c0 + cpd00072_c0 '
p204
asI133
(lp205
S'rxn07085 : cpd00007_c0 + 2.0 cpd00067_c0 --> cpd00025_c0 '
p206
aS'rxn00229_reverse : cpd00001_c0 + cpd00011_c0 + cpd00029_c0 --> cpd00007_c0 + cpd00159_c0 '
p207
asI134
(lp208
S'rxn00284 : cpd00003_c0 + cpd00036_c0 --> cpd00004_c0 + cpd00067_c0 + cpd00106_c0 '
p209
aS'rxn00182_reverse : cpd00004_c0 + cpd00013_c0 + cpd00024_c0 + cpd00067_c0 --> cpd00001_c0 + cpd00003_c0 + cpd00023_c0 '
p210
asI135
(lp211
S'rxn01667 : cpd00020_c0 + cpd00173_c0 --> cpd00061_c0 + cpd00354_c0 '
p212
aS'rxn01666_reverse : cpd00009_c0 + cpd00067_c0 + cpd00354_c0 --> cpd00001_c0 + cpd00173_c0 '
p213
asI136
(lp214
S'rxn00157 : cpd00022_c0 + cpd00047_c0 --> cpd00010_c0 + cpd00020_c0 '
p215
asI137
(lp216
S'rxn00905 : cpd00712_c0 --> cpd00055_c0 + cpd00123_c0 '
p217
asI139
(lp218
S'rxn10791 : 2.0 cpd00001_c0 + cpd00038_c0 --> 2.0 cpd00009_c0 + 2.0 cpd00067_c0 + cpd00126_c0 '
p219
aS'rxn13139_reverse : 3.0 cpd00009_c0 + 3.0 cpd00067_c0 + cpd00311_c0 --> 3.0 cpd00001_c0 + cpd00038_c0 '
p220
asI140
(lp221
S'rxn00432 : cpd00007_c0 + cpd00116_c0 --> cpd00025_c0 + cpd00055_c0 '
p222
aS'rxn00522_reverse : cpd00013_c0 + cpd00025_c0 + cpd00868_c0 --> cpd00001_c0 + cpd00007_c0 + cpd00069_c0 '
p223
asI141
(lp224
S'rxn00430 : cpd00003_c0 + cpd00116_c0 --> cpd00004_c0 + cpd00055_c0 + cpd00067_c0 '
p225
aS'rxn00429_reverse : cpd00004_c0 + cpd00047_c0 + 2.0 cpd00067_c0 --> cpd00001_c0 + cpd00003_c0 + cpd00055_c0 '
p226
asI143
(lp227
S'rxn01952 : cpd00009_c0 + cpd00067_c0 + cpd00492_c0 --> cpd00001_c0 + cpd02612_c0 '
p228
aS'rxn01951_reverse : cpd00008_c0 + cpd02612_c0 --> cpd00002_c0 + cpd00492_c0 '
p229
asI145
(lp230
S'rxn12822 : 2.0 cpd00023_c0 + 2.0 cpd11621_c0 --> cpd00024_c0 + cpd00053_c0 + 2.0 cpd00067_c0 + 2.0 cpd11620_c0 '
p231
asI146
(lp232
S'rxn00379 : cpd00002_c0 + cpd00048_c0 + cpd00067_c0 --> cpd00012_c0 + cpd00193_c0 '
p233
aS'rxn09240_reverse : cpd00009_c0 + cpd00012_c0 + cpd00031_c0 + cpd00193_c0 --> cpd00001_c0 + cpd00002_c0 + cpd00038_c0 + cpd00048_c0 '
p234
asI149
(lp235
S'rxn06093 : cpd00001_c0 --> cpd11594_c0 '
p236
aS'rxn09989 : 5.0 cpd00001_c0 + cpd11594_c0 --> 6.0 cpd00027_c0 '
p237
asI150
(lp238
S'rxn11987 : 3.0 cpd00001_c0 + cpd01078_c0 + 6.0 cpd11621_c0 --> 6.0 cpd00067_c0 + cpd03387_c0 + 6.0 cpd11620_c0 '
p239
asI157
(lp240
S'rxn07034 : cpd00001_c0 --> 2.0 cpd00027_c0 '
p241
asI159
(lp242
S'rxn05807 : cpd00001_c0 --> cpd00027_c0 '
p243
asI161
(lp244
S'rxn06055 : 16.0 cpd00008_c0 + 16.0 cpd00009_c0 + 2.0 cpd00013_c0 + cpd11640_c0 --> 16.0 cpd00001_c0 + 16.0 cpd00002_c0 + 8.0 cpd00067_c0 + cpd00528_c0 + 8.0 cpd12713_c0 '
p245
aS'rxn11947_reverse : 16.0 cpd00008_c0 + 16.0 cpd00009_c0 + 8.0 cpd11621_c0 + 8.0 cpd12713_c0 --> 16.0 cpd00001_c0 + 16.0 cpd00002_c0 + 8.0 cpd11620_c0 '
p246
asI162
(lp247
S'rxn05760 : 2.0 cpd00023_c0 + cpd11621_c0 --> cpd00024_c0 + cpd00053_c0 + 2.0 cpd00067_c0 + cpd11620_c0 '
p248
asI164
(lp249
S'rxn13775 : cpd00047_c0 + cpd11621_c0 --> cpd00011_c0 + cpd00067_c0 + cpd11620_c0 '
p250
asI167
(lp251
S'rxn07049 : cpd00001_c0 --> cpd00027_c0 + cpd00079_c0 '
p252
asI168
(lp253
S'rxn07040 : cpd00001_c0 --> 2.0 cpd00190_c0 '
p254
aS'rxn12995 : cpd00002_c0 + cpd00190_c0 --> cpd00008_c0 + cpd00079_c0 '
p255
asI169
(lp256
S'rxn07045 : cpd00001_c0 --> cpd00079_c0 + cpd00082_c0 '
p257
aS'rxn12188_reverse : cpd00009_c0 + cpd00067_c0 + cpd00082_c0 --> cpd00001_c0 + cpd00802_c0 '
p258
asI173
(lp259
S'rxn03541 : cpd02039_c0 + cpd03917_c0 --> cpd00001_c0 + cpd03918_c0 '
p260
as.